(dp1
S'n02124075'
p2
I26
sS'n04067472'
p3
I137
sS'n04540053'
p4
I141
sS'n01945685'
p5
I109
sS'n02395406'
p6
I88
sS'n02125311'
p7
I22
sS'n03026506'
p8
I119
sS'n02699494'
p9
I87
sS'n04099969'
p10
I148
sS'n07749582'
p11
I85
sS'n02268443'
p12
I89
sS'n02977058'
p13
I182
sS'n01641577'
p14
I186
sS'n07734744'
p15
I151
sS'n02802426'
p16
I61
sS'n01774750'
p17
I8
sS'n03599486'
p18
I49
sS'n07920052'
p19
I46
sS'n03970156'
p20
I170
sS'n03891332'
p21
I42
sS'n04562935'
p22
I12
sS'n03014705'
p23
I43
sS'n04251144'
p24
I140
sS'n04356056'
p25
I136
sS'n02106662'
p26
I197
sS'n04417672'
p27
I133
sS'n03201208'
p28
I172
sS'n02279972'
p29
I138
sS'n02002724'
p30
I198
sS'n02132136'
p31
I180
sS'n07747607'
p32
I157
sS'n02074367'
p33
I81
sS'n04532106'
p34
I13
sS'n04146614'
p35
I62
sS'n04560804'
p36
I67
sS'n02950826'
p37
I68
sS'n07873807'
p38
I72
sS'n02364673'
p39
I163
sS'n04366367'
p40
I84
sS'n04507155'
p41
I162
sS'n02403003'
p42
I1
sS'n07615774'
p43
I132
sS'n04501370'
p44
I83
sS'n03854065'
p45
I54
sS'n03126707'
p46
I176
sS'n02906734'
p47
I155
sS'n01770393'
p48
I93
sS'n03838899'
p49
I21
sS'n04597913'
p50
I104
sS'n03930313'
p51
I117
sS'n04118538'
p52
I110
sS'n03733131'
p53
I63
sS'n01443537'
p54
I4
sS'n04179913'
p55
I113
sS'n07875152'
p56
I92
sS'n03544143'
p57
I47
sS'n09428293'
p58
I25
sS'n04311004'
p59
I64
sS'n02123394'
p60
I174
sS'n04070727'
p61
I57
sS'n03085013'
p62
I40
sS'n02437312'
p63
I125
sS'n02793495'
p64
I71
sS'n02730930'
p65
I101
sS'n03042490'
p66
I124
sS'n04265275'
p67
I103
sS'n02963159'
p68
I86
sS'n01910747'
p69
I36
sS'n04371430'
p70
I35
sS'n04328186'
p71
I185
sS'n03649909'
p72
I147
sS'n02190166'
p73
I116
sS'n03388043'
p74
I139
sS'n01774384'
p75
I99
sS'n01944390'
p76
I121
sS'n09256479'
p77
I53
sS'n02837789'
p78
I24
sS'n07579787'
p79
I44
sS'n02058221'
p80
I75
sS'n04399382'
p81
I48
sS'n04275548'
p82
I173
sS'n02791270'
p83
I76
sS'n02481823'
p84
I105
sS'n02769748'
p85
I3
sS'n03089624'
p86
I100
sS'n02099712'
p87
I111
sS'n07695742'
p88
I131
sS'n03937543'
p89
I146
sS'n04456115'
p90
I23
sS'n02281406'
p91
I149
sS'n09246464'
p92
I165
sS'n02814533'
p93
I6
sS'n03983396'
p94
I177
sS'n07753592'
p95
I31
sS'n04149813'
p96
I144
sS'n01983481'
p97
I96
sS'n02233338'
p98
I143
sS'n04008634'
p99
I38
sS'n02823428'
p100
I142
sS'n03400231'
p101
I127
sS'n02841315'
p102
I166
sS'n03393912'
p103
I135
sS'n03355925'
p104
I45
sS'n07583066'
p105
I16
sS'n04074963'
p106
I188
sS'n01629819'
p107
I129
sS'n02795169'
p108
I193
sS'n09332890'
p109
I10
sS'n02321529'
p110
I152
sS'n04487081'
p111
I122
sS'n03250847'
p112
I41
sS'n03255030'
p113
I168
sS'n03902125'
p114
I184
sS'n02892201'
p115
I18
sS'n03404251'
p116
I191
sS'n02883205'
p117
I66
sS'n03100240'
p118
I189
sS'n09193705'
p119
I37
sS'n02415577'
p120
I60
sS'n02480495'
p121
I78
sS'n01698640'
p122
I30
sS'n02666196'
p123
I126
sS'n03637318'
p124
I161
sS'n03796401'
p125
I11
sS'n04133789'
p126
I55
sS'n03444034'
p127
I73
sS'n01917289'
p128
I183
sS'n01950731'
p129
I175
sS'n02123045'
p130
I192
sS'n01855672'
p131
I114
sS'n01984695'
p132
I190
sS'n07711569'
p133
I179
sS'n04532670'
p134
I181
sS'n04285008'
p135
I128
sS'n02486410'
p136
I115
sS'n01882714'
p137
I74
sS'n03763968'
p138
I196
sS'n07768694'
p139
I50
sS'n02999410'
p140
I32
sS'n03617480'
p141
I14
sS'n02917067'
p142
I15
sS'n02988304'
p143
I150
sS'n06596364'
p144
I17
sS'n01768244'
p145
I154
sS'n02410509'
p146
I9
sS'n02056570'
p147
I2
sS'n03976657'
p148
I167
sS'n01742172'
p149
I98
sS'n07614500'
p150
I194
sS'n03980874'
p151
I91
sS'n03804744'
p152
I120
sS'n02808440'
p153
I95
sS'n04398044'
p154
I159
sS'n02843684'
p155
I118
sS'n02423022'
p156
I108
sS'n02669723'
p157
I106
sS'n04465501'
p158
I199
sS'n02094433'
p159
I171
sS'n02909870'
p160
I90
sS'n02165456'
p161
I51
sS'n02231487'
p162
I123
sS'n03770439'
p163
I70
sS'n03670208'
p164
I130
sS'n02129165'
p165
I5
sS'n02099601'
p166
I52
sS'n04486054'
p167
I58
sS'n03837869'
p168
I77
sS'n02815834'
p169
I134
sS'n03447447'
p170
I160
sS'n07720875'
p171
I56
sS'n02788148'
p172
I34
sS'n02226429'
p173
I153
sS'n03814639'
p174
I59
sS'n03706229'
p175
I169
sS'n07871810'
p176
I29
sS'n04259630'
p177
I7
sS'n02509815'
p178
I94
sS'n03424325'
p179
I39
sS'n02948072'
p180
I80
sS'n03179701'
p181
I82
sS'n02236044'
p182
I112
sS'n02206856'
p183
I19
sS'n03160309'
p184
I28
sS'n02085620'
p185
I158
sS'n02113799'
p186
I27
sS'n03977966'
p187
I187
sS'n03584254'
p188
I0
sS'n12267677'
p189
I33
sS'n04023962'
p190
I97
sS'n02814860'
p191
I102
sS'n04254777'
p192
I145
sS'n03662601'
p193
I69
sS'n04596742'
p194
I195
sS'n01644900'
p195
I156
sS'n03992509'
p196
I164
sS'n01784675'
p197
I178
sS'n04376876'
p198
I20
sS'n02927161'
p199
I65
sS'n07715103'
p200
I107
sS'n02504458'
p201
I79
s.